target datalayout = "e-m:e-p270:32:32-p271:32:32-p272:64:64-i64:64-i128:128-f80:128-n8:16:32:64-S128"
target triple = "x86_64-pc-linux-gnu"

%struct.Vec_Int_t_ = type { i32, i32, ptr }

; Function Attrs: nounwind uwtable
define internal void @Vec_IntFree(ptr noundef %0) #0 {
  %2 = alloca ptr, align 8
  store ptr %0, ptr %2, align 8
  %3 = load ptr, ptr %2, align 8
  %4 = getelementptr inbounds %struct.Vec_Int_t_, ptr %3, i32 0, i32 2
  %5 = load ptr, ptr %4, align 8
  %6 = icmp ne ptr %5, null
  br i1 %6, label %7, label %13

7:                                                ; preds = %1
  %8 = load ptr, ptr %2, align 8
  %9 = getelementptr inbounds %struct.Vec_Int_t_, ptr %8, i32 0, i32 2
  %10 = load ptr, ptr %9, align 8
  call void @free(ptr noundef %10) #10
  %11 = load ptr, ptr %2, align 8
  %12 = getelementptr inbounds %struct.Vec_Int_t_, ptr %11, i32 0, i32 2
  store ptr null, ptr %12, align 8
  br label %14

13:                                               ; preds = %1
  br label %14

14:                                               ; preds = %13, %7
  %15 = load ptr, ptr %2, align 8
  %16 = icmp ne ptr %15, null
  br i1 %16, label %17, label %19

17:                                               ; preds = %14
  %18 = load ptr, ptr %2, align 8
  call void @free(ptr noundef %18) #10
  store ptr null, ptr %2, align 8
  br label %20

19:                                               ; preds = %14
  br label %20

20:                                               ; preds = %19, %17
  ret void
}

; Function Attrs: nounwind uwtable
define ptr @Abc_NtkPhaseAbstract(ptr noundef %0, i32 noundef %1, i32 noundef %2, i32 noundef %3, i32 noundef %4, i32 noundef %5) #0 {
  %7 = alloca ptr, align 8
  %8 = alloca ptr, align 8
  %9 = alloca i32, align 4
  %10 = alloca i32, align 4
  %11 = alloca i32, align 4
  %12 = alloca i32, align 4
  %13 = alloca i32, align 4
  %14 = alloca ptr, align 8
  %15 = alloca ptr, align 8
  %16 = alloca ptr, align 8
  %17 = alloca ptr, align 8
  store ptr %0, ptr %8, align 8
  store i32 %1, ptr %9, align 4
  store i32 %2, ptr %10, align 4
  store i32 %3, ptr %11, align 4
  store i32 %4, ptr %12, align 4
  store i32 %5, ptr %13, align 4
  %18 = load ptr, ptr %8, align 8
  %19 = call ptr @Abc_NtkToDar(ptr noundef %18, i32 noundef 0, i32 noundef 1)
  store ptr %19, ptr %16, align 8
  %20 = load ptr, ptr %16, align 8
  %21 = icmp eq ptr %20, null
  br i1 %21, label %22, label %23

22:                                               ; preds = %6
  store ptr null, ptr %7, align 8
  br label %44

23:                                               ; preds = %6
  %24 = load ptr, ptr %8, align 8
  %25 = call ptr @Abc_NtkGetLatchValues(ptr noundef %24)
  store ptr %25, ptr %14, align 8
  %26 = load ptr, ptr %16, align 8
  store ptr %26, ptr %17, align 8
  %27 = load ptr, ptr %14, align 8
  %28 = load i32, ptr %9, align 4
  %29 = load i32, ptr %10, align 4
  %30 = load i32, ptr %11, align 4
  %31 = load i32, ptr %12, align 4
  %32 = load i32, ptr %13, align 4
  %33 = call ptr @Saig_ManPhaseAbstract(ptr noundef %26, ptr noundef %27, i32 noundef %28, i32 noundef %29, i32 noundef %30, i32 noundef %31, i32 noundef %32)
  store ptr %33, ptr %16, align 8
  %34 = load ptr, ptr %14, align 8
  call void @Vec_IntFree(ptr noundef %34)
  %35 = load ptr, ptr %17, align 8
  call void @Aig_ManStop(ptr noundef %35)
  %36 = load ptr, ptr %16, align 8
  %37 = icmp eq ptr %36, null
  br i1 %37, label %38, label %39

38:                                               ; preds = %23
  store ptr null, ptr %7, align 8
  br label %44

39:                                               ; preds = %23
  %40 = load ptr, ptr %16, align 8
  %41 = call ptr @Abc_NtkFromAigPhase(ptr noundef %40)
  store ptr %41, ptr %15, align 8
  %42 = load ptr, ptr %16, align 8
  call void @Aig_ManStop(ptr noundef %42)
  %43 = load ptr, ptr %15, align 8
  store ptr %43, ptr %7, align 8
  br label %44

44:                                               ; preds = %39, %38, %22
  %45 = load ptr, ptr %7, align 8
  ret ptr %45
}