; Function Attrs: nounwind uwtable
define noundef ptr @Abc_NtkPhaseAbstract(ptr noundef %0, i32 noundef %1, i32 noundef %2, i32 noundef %3, i32 noundef %4, i32 noundef %5) local_unnamed_addr #1 {
  %7 = tail call ptr @Abc_NtkToDar(ptr noundef %0, i32 noundef 0, i32 noundef 1)
  %8 = icmp eq ptr %7, null
  br i1 %8, label %18, label %9

9:                                                ; preds = %6
  %10 = tail call ptr @Abc_NtkGetLatchValues(ptr noundef %0)
  %11 = tail call ptr @Saig_ManPhaseAbstract(ptr noundef nonnull %7, ptr noundef %10, i32 noundef %1, i32 noundef %2, i32 noundef %3, i32 noundef %4, i32 noundef %5) #19
  %12 = getelementptr inbounds nuw i8, ptr %10, i64 8
  %13 = load ptr, ptr %12, align 8
  %.not.i = icmp eq ptr %13, null
  br i1 %.not.i, label %Vec_IntFree.exit, label %14

14:                                               ; preds = %9
  tail call void @free(ptr noundef nonnull %13) #19
  br label %Vec_IntFree.exit

Vec_IntFree.exit:                                 ; preds = %9, %14
  tail call void @free(ptr noundef nonnull %10) #19
  tail call void @Aig_ManStop(ptr noundef nonnull %7) #19
  %15 = icmp eq ptr %11, null
  br i1 %15, label %18, label %16

16:                                               ; preds = %Vec_IntFree.exit
  %17 = tail call ptr @Abc_NtkFromAigPhase(ptr noundef nonnull %11)
  tail call void @Aig_ManStop(ptr noundef nonnull %11) #19
  br label %18

18:                                               ; preds = %Vec_IntFree.exit, %6, %16
  %.0 = phi ptr [ %17, %16 ], [ null, %6 ], [ null, %Vec_IntFree.exit ]
  ret ptr %.0
}